; Function Attrs: nounwind sspstrong uwtable
define internal i64 @enum_member(i64 noundef %0, i64 noundef %1) #0 {
  %3 = tail call i64 @rb_imemo_new(i32 noundef 5, i64 noundef 0, i64 noundef 40) #14
  %4 = inttoptr i64 %3 to ptr
  %5 = getelementptr inbounds nuw i8, ptr %4, i64 16
  store i64 %1, ptr %5, align 8, !tbaa !7
  %6 = getelementptr inbounds nuw i8, ptr %4, i64 24
  tail call void @llvm.memset.p0.i64(ptr noundef nonnull align 8 dereferenceable(16) %6, i8 0, i64 16, i1 false)
  %7 = tail call i64 @rb_block_call(i64 noundef %0, i64 noundef 3073, i32 noundef 0, ptr noundef null, ptr noundef nonnull @member_i, i64 noundef %3) #14
  %8 = load i64, ptr %6, align 8, !tbaa !67
  ret i64 %8
}